; Function Attrs: nounwind uwtable
define internal noundef i32 @func(ptr noundef %0, ptr noundef %1, ptr readnone captures(none) %2) #0 {
  %4 = tail call ptr @N_VGetArrayPointer(ptr noundef %0) #6
  %5 = tail call ptr @N_VGetArrayPointer(ptr noundef %1) #6
  %invariant.gep78 = getelementptr i8, ptr %4, i64 -16
  %invariant.gep74 = getelementptr i8, ptr %4, i64 -240
  br label %.preheader

.preheader:                                       ; preds = %3, %.split.us
  %indvars.iv63 = phi i64 [ 1, %3 ], [ %indvars.iv.next64, %.split.us ]
  %6 = add nsw i64 %indvars.iv63, -1
  %7 = icmp eq i64 %indvars.iv63, 1
  %8 = add nuw nsw i64 %indvars.iv63, -63
  %9 = icmp eq i64 %indvars.iv63, 31
  br i1 %7, label %.preheader.split.us, label %.preheader.split.preheader

.preheader.split.preheader:                       ; preds = %.preheader
  %gep79 = getelementptr double, ptr %invariant.gep78, i64 %indvars.iv63
  %invariant.gep = getelementptr double, ptr %4, i64 %indvars.iv63
  %invariant.gep70 = getelementptr double, ptr %4, i64 %8
  %invariant.gep72 = getelementptr double, ptr %4, i64 %6
  br label %.preheader.split

.preheader.split.us:                              ; preds = %.preheader
  %invariant.gep76 = getelementptr double, ptr %4, i64 %8
  br label %.thread.us

.thread.us:                                       ; preds = %22, %.preheader.split.us
  %indvars.iv56 = phi i64 [ %indvars.iv.next57, %22 ], [ 1, %.preheader.split.us ]
  %10 = mul nuw nsw i64 %indvars.iv56, 31
  %11 = add nsw i64 %10, -31
  %12 = getelementptr inbounds double, ptr %4, i64 %11
  %13 = load double, ptr %12, align 8, !tbaa !12
  %gep75 = getelementptr double, ptr %invariant.gep74, i64 %10
  %14 = load double, ptr %gep75, align 8, !tbaa !12
  %15 = icmp eq i64 %indvars.iv56, 1
  br i1 %15, label %.thread46.us, label %16

16:                                               ; preds = %.thread.us
  %gep77 = getelementptr double, ptr %invariant.gep76, i64 %10
  %17 = load double, ptr %gep77, align 8, !tbaa !12
  %18 = icmp eq i64 %indvars.iv56, 31
  br i1 %18, label %22, label %.thread46.us

.thread46.us:                                     ; preds = %16, %.thread.us
  %19 = phi double [ %17, %16 ], [ 0.000000e+00, %.thread.us ]
  %20 = getelementptr inbounds nuw double, ptr %4, i64 %10
  %21 = load double, ptr %20, align 8, !tbaa !12
  br label %22

22:                                               ; preds = %.thread46.us, %16
  %23 = phi double [ %19, %.thread46.us ], [ %17, %16 ]
  %24 = phi double [ %21, %.thread46.us ], [ 0.000000e+00, %16 ]
  %25 = tail call double @llvm.fmuladd.f64(double %13, double -2.000000e+00, double %23)
  %26 = fadd double %25, %24
  %27 = fmul double %26, 1.024000e+03
  %28 = tail call double @llvm.fmuladd.f64(double %13, double -2.000000e+00, double %14)
  %29 = fadd double %28, 0.000000e+00
  %30 = fmul double %29, 1.024000e+03
  %31 = fadd double %30, %27
  %32 = fadd double %13, %31
  %33 = fneg double %13
  %34 = fmul double %13, %33
  %35 = tail call double @llvm.fmuladd.f64(double %34, double %13, double %32)
  %36 = fadd double %35, 2.000000e+00
  %37 = getelementptr inbounds double, ptr %5, i64 %11
  store double %36, ptr %37, align 8, !tbaa !12
  %indvars.iv.next57 = add nuw nsw i64 %indvars.iv56, 1
  %exitcond62.not = icmp eq i64 %indvars.iv.next57, 32
  br i1 %exitcond62.not, label %.split.us, label %.thread.us

.preheader.split:                                 ; preds = %.preheader.split.preheader, %54
  %indvars.iv = phi i64 [ 1, %.preheader.split.preheader ], [ %indvars.iv.next, %54 ]
  %38 = mul nuw nsw i64 %indvars.iv, 31
  %39 = add nsw i64 %38, -31
  %40 = add nuw nsw i64 %39, %6
  %41 = getelementptr inbounds double, ptr %4, i64 %40
  %42 = load double, ptr %41, align 8, !tbaa !12
  %43 = getelementptr double, ptr %gep79, i64 %39
  %44 = load double, ptr %43, align 8, !tbaa !12
  br i1 %9, label %46, label %.thread

.thread:                                          ; preds = %.preheader.split
  %gep = getelementptr double, ptr %invariant.gep, i64 %39
  %45 = load double, ptr %gep, align 8, !tbaa !12
  br label %46

46:                                               ; preds = %.preheader.split, %.thread
  %47 = phi double [ %45, %.thread ], [ 0.000000e+00, %.preheader.split ]
  %48 = icmp eq i64 %indvars.iv, 1
  br i1 %48, label %.thread46, label %49

49:                                               ; preds = %46
  %gep71 = getelementptr double, ptr %invariant.gep70, i64 %38
  %50 = load double, ptr %gep71, align 8, !tbaa !12
  %51 = icmp eq i64 %indvars.iv, 31
  br i1 %51, label %54, label %.thread46

.thread46:                                        ; preds = %46, %49
  %52 = phi double [ %50, %49 ], [ 0.000000e+00, %46 ]
  %gep73 = getelementptr double, ptr %invariant.gep72, i64 %38
  %53 = load double, ptr %gep73, align 8, !tbaa !12
  br label %54

54:                                               ; preds = %49, %.thread46
  %55 = phi double [ %52, %.thread46 ], [ %50, %49 ]
  %56 = phi double [ %53, %.thread46 ], [ 0.000000e+00, %49 ]
  %57 = tail call double @llvm.fmuladd.f64(double %42, double -2.000000e+00, double %55)
  %58 = fadd double %57, %56
  %59 = fmul double %58, 1.024000e+03
  %60 = tail call double @llvm.fmuladd.f64(double %42, double -2.000000e+00, double %47)
  %61 = fadd double %44, %60
  %62 = fmul double %61, 1.024000e+03
  %63 = fadd double %62, %59
  %64 = fadd double %42, %63
  %65 = fneg double %42
  %66 = fmul double %42, %65
  %67 = tail call double @llvm.fmuladd.f64(double %66, double %42, double %64)
  %68 = fadd double %67, 2.000000e+00
  %69 = getelementptr inbounds double, ptr %5, i64 %40
  store double %68, ptr %69, align 8, !tbaa !12
  %indvars.iv.next = add nuw nsw i64 %indvars.iv, 1
  %exitcond.not = icmp eq i64 %indvars.iv.next, 32
  br i1 %exitcond.not, label %.split.us, label %.preheader.split

.split.us:                                        ; preds = %54, %22
  %indvars.iv.next64 = add nuw nsw i64 %indvars.iv63, 1
  %exitcond68.not = icmp eq i64 %indvars.iv.next64, 32
  br i1 %exitcond68.not, label %70, label %.preheader

70:                                               ; preds = %.split.us
  ret i32 0
}